target datalayout = "e-m:e-p270:32:32-p271:32:32-p272:64:64-i64:64-i128:128-f80:128-n8:16:32:64-S128"
target triple = "x86_64-pc-linux-gnu"

%"class.draco::RAnsBitDecoder" = type <{ %"struct.draco::AnsDecoder", i8, [7 x i8] }>
%"struct.draco::AnsDecoder" = type { ptr, i32, i32 }

; Function Attrs: inlinehint mustprogress nounwind uwtable
define internal noundef i32 @_ZN5dracoL14rabs_desc_readEPNS_10AnsDecoderEh(ptr noundef %0, i8 noundef zeroext %1) #9 {
  %3 = alloca ptr, align 8
  %4 = alloca i8, align 1
  %5 = alloca i32, align 4
  %6 = alloca i32, align 4
  %7 = alloca i32, align 4
  %8 = alloca i32, align 4
  %9 = alloca i32, align 4
  %10 = alloca i8, align 1
  store ptr %0, ptr %3, align 8, !tbaa !13
  store i8 %1, ptr %4, align 1, !tbaa !32
  call void @llvm.lifetime.start.p0(i64 4, ptr %5) #3
  call void @llvm.lifetime.start.p0(i64 4, ptr %6) #3
  call void @llvm.lifetime.start.p0(i64 4, ptr %7) #3
  call void @llvm.lifetime.start.p0(i64 4, ptr %8) #3
  call void @llvm.lifetime.start.p0(i64 4, ptr %9) #3
  call void @llvm.lifetime.start.p0(i64 1, ptr %10) #3
  %11 = load i8, ptr %4, align 1, !tbaa !32
  %12 = zext i8 %11 to i32
  %13 = sub i32 256, %12
  %14 = trunc i32 %13 to i8
  store i8 %14, ptr %10, align 1, !tbaa !32
  %15 = load ptr, ptr %3, align 8, !tbaa !13
  %16 = getelementptr inbounds nuw %"struct.draco::AnsDecoder", ptr %15, i32 0, i32 2
  %17 = load i32, ptr %16, align 4, !tbaa !17
  %18 = icmp ult i32 %17, 4096
  br i1 %18, label %19, label %43

19:                                               ; preds = %2
  %20 = load ptr, ptr %3, align 8, !tbaa !13
  %21 = getelementptr inbounds nuw %"struct.draco::AnsDecoder", ptr %20, i32 0, i32 1
  %22 = load i32, ptr %21, align 8, !tbaa !16
  %23 = icmp sgt i32 %22, 0
  br i1 %23, label %24, label %43

24:                                               ; preds = %19
  %25 = load ptr, ptr %3, align 8, !tbaa !13
  %26 = getelementptr inbounds nuw %"struct.draco::AnsDecoder", ptr %25, i32 0, i32 2
  %27 = load i32, ptr %26, align 4, !tbaa !17
  %28 = mul i32 %27, 256
  %29 = load ptr, ptr %3, align 8, !tbaa !13
  %30 = getelementptr inbounds nuw %"struct.draco::AnsDecoder", ptr %29, i32 0, i32 0
  %31 = load ptr, ptr %30, align 8, !tbaa !15
  %32 = load ptr, ptr %3, align 8, !tbaa !13
  %33 = getelementptr inbounds nuw %"struct.draco::AnsDecoder", ptr %32, i32 0, i32 1
  %34 = load i32, ptr %33, align 8, !tbaa !16
  %35 = add nsw i32 %34, -1
  store i32 %35, ptr %33, align 8, !tbaa !16
  %36 = sext i32 %35 to i64
  %37 = getelementptr inbounds i8, ptr %31, i64 %36
  %38 = load i8, ptr %37, align 1, !tbaa !32
  %39 = zext i8 %38 to i32
  %40 = add i32 %28, %39
  %41 = load ptr, ptr %3, align 8, !tbaa !13
  %42 = getelementptr inbounds nuw %"struct.draco::AnsDecoder", ptr %41, i32 0, i32 2
  store i32 %40, ptr %42, align 4, !tbaa !17
  br label %43

43:                                               ; preds = %24, %19, %2
  %44 = load ptr, ptr %3, align 8, !tbaa !13
  %45 = getelementptr inbounds nuw %"struct.draco::AnsDecoder", ptr %44, i32 0, i32 2
  %46 = load i32, ptr %45, align 4, !tbaa !17
  store i32 %46, ptr %8, align 4, !tbaa !20
  %47 = load i32, ptr %8, align 4, !tbaa !20
  %48 = udiv i32 %47, 256
  store i32 %48, ptr %6, align 4, !tbaa !20
  %49 = load i32, ptr %8, align 4, !tbaa !20
  %50 = urem i32 %49, 256
  store i32 %50, ptr %7, align 4, !tbaa !20
  %51 = load i32, ptr %6, align 4, !tbaa !20
  %52 = load i8, ptr %10, align 1, !tbaa !32
  %53 = zext i8 %52 to i32
  %54 = mul i32 %51, %53
  store i32 %54, ptr %9, align 4, !tbaa !20
  %55 = load i32, ptr %7, align 4, !tbaa !20
  %56 = load i8, ptr %10, align 1, !tbaa !32
  %57 = zext i8 %56 to i32
  %58 = icmp ult i32 %55, %57
  %59 = zext i1 %58 to i32
  store i32 %59, ptr %5, align 4, !tbaa !20
  %60 = load i32, ptr %5, align 4, !tbaa !20
  %61 = icmp ne i32 %60, 0
  br i1 %61, label %62, label %68

62:                                               ; preds = %43
  %63 = load i32, ptr %9, align 4, !tbaa !20
  %64 = load i32, ptr %7, align 4, !tbaa !20
  %65 = add i32 %63, %64
  %66 = load ptr, ptr %3, align 8, !tbaa !13
  %67 = getelementptr inbounds nuw %"struct.draco::AnsDecoder", ptr %66, i32 0, i32 2
  store i32 %65, ptr %67, align 4, !tbaa !17
  br label %77

68:                                               ; preds = %43
  %69 = load i32, ptr %8, align 4, !tbaa !20
  %70 = load i32, ptr %9, align 4, !tbaa !20
  %71 = sub i32 %69, %70
  %72 = load i8, ptr %10, align 1, !tbaa !32
  %73 = zext i8 %72 to i32
  %74 = sub i32 %71, %73
  %75 = load ptr, ptr %3, align 8, !tbaa !13
  %76 = getelementptr inbounds nuw %"struct.draco::AnsDecoder", ptr %75, i32 0, i32 2
  store i32 %74, ptr %76, align 4, !tbaa !17
  br label %77

77:                                               ; preds = %68, %62
  %78 = load i32, ptr %5, align 4, !tbaa !20
  call void @llvm.lifetime.end.p0(i64 1, ptr %10) #3
  call void @llvm.lifetime.end.p0(i64 4, ptr %9) #3
  call void @llvm.lifetime.end.p0(i64 4, ptr %8) #3
  call void @llvm.lifetime.end.p0(i64 4, ptr %7) #3
  call void @llvm.lifetime.end.p0(i64 4, ptr %6) #3
  call void @llvm.lifetime.end.p0(i64 4, ptr %5) #3
  ret i32 %78
}

; Function Attrs: mustprogress uwtable
define noundef zeroext i1 @_ZN5draco14RAnsBitDecoder13DecodeNextBitEv(ptr noundef nonnull align 8 dereferenceable(17) %0) #4 align 2 {
  %2 = alloca ptr, align 8
  %3 = alloca i8, align 1
  store ptr %0, ptr %2, align 8, !tbaa !3
  %4 = load ptr, ptr %2, align 8
  call void @llvm.lifetime.start.p0(i64 1, ptr %3) #3
  %5 = getelementptr inbounds nuw %"class.draco::RAnsBitDecoder", ptr %4, i32 0, i32 0
  %6 = getelementptr inbounds nuw %"class.draco::RAnsBitDecoder", ptr %4, i32 0, i32 1
  %7 = load i8, ptr %6, align 8, !tbaa !8
  %8 = call noundef i32 @_ZN5dracoL14rabs_desc_readEPNS_10AnsDecoderEh(ptr noundef %5, i8 noundef zeroext %7)
  %9 = trunc i32 %8 to i8
  store i8 %9, ptr %3, align 1, !tbaa !32
  %10 = load i8, ptr %3, align 1, !tbaa !32
  %11 = zext i8 %10 to i32
  %12 = icmp sgt i32 %11, 0
  call void @llvm.lifetime.end.p0(i64 1, ptr %3) #3
  ret i1 %12
}

; Function Attrs: mustprogress uwtable
define void @_ZN5draco14RAnsBitDecoder28DecodeLeastSignificantBits32EiPj(ptr noundef nonnull align 8 dereferenceable(17) %0, i32 noundef %1, ptr noundef %2) #4 align 2 {
  %4 = alloca ptr, align 8
  %5 = alloca i32, align 4
  %6 = alloca ptr, align 8
  %7 = alloca i32, align 4
  store ptr %0, ptr %4, align 8, !tbaa !3
  store i32 %1, ptr %5, align 4, !tbaa !20
  store ptr %2, ptr %6, align 8, !tbaa !29
  %8 = load ptr, ptr %4, align 8
  call void @llvm.lifetime.start.p0(i64 4, ptr %7) #3
  store i32 0, ptr %7, align 4, !tbaa !20
  br label %9

9:                                                ; preds = %12, %3
  %10 = load i32, ptr %5, align 4, !tbaa !20
  %11 = icmp ne i32 %10, 0
  br i1 %11, label %12, label %20

12:                                               ; preds = %9
  %13 = load i32, ptr %7, align 4, !tbaa !20
  %14 = shl i32 %13, 1
  %15 = call noundef zeroext i1 @_ZN5draco14RAnsBitDecoder13DecodeNextBitEv(ptr noundef nonnull align 8 dereferenceable(17) %8)
  %16 = zext i1 %15 to i32
  %17 = add i32 %14, %16
  store i32 %17, ptr %7, align 4, !tbaa !20
  %18 = load i32, ptr %5, align 4, !tbaa !20
  %19 = add nsw i32 %18, -1
  store i32 %19, ptr %5, align 4, !tbaa !20
  br label %9, !llvm.loop !35

20:                                               ; preds = %9
  %21 = load i32, ptr %7, align 4, !tbaa !20
  %22 = load ptr, ptr %6, align 8, !tbaa !29
  store i32 %21, ptr %22, align 4, !tbaa !20
  call void @llvm.lifetime.end.p0(i64 4, ptr %7) #3
  ret void
}