; Function Attrs: mustprogress nofree norecurse nosync nounwind memory(read, argmem: readwrite, inaccessiblemem: none) uwtable
define void @_ZN5draco14RAnsBitDecoder28DecodeLeastSignificantBits32EiPj(ptr noundef nonnull align 8 captures(none) dereferenceable(17) %0, i32 noundef %1, ptr noundef writeonly captures(none) %2) local_unnamed_addr #8 align 2 {
  %.not8 = icmp eq i32 %1, 0
  br i1 %.not8, label %._crit_edge, label %.lr.ph

.lr.ph:                                           ; preds = %3
  %4 = getelementptr inbounds nuw i8, ptr %0, i64 16
  %5 = load i8, ptr %4, align 8, !tbaa !23
  %6 = getelementptr inbounds nuw i8, ptr %0, i64 12
  %7 = getelementptr inbounds nuw i8, ptr %0, i64 8
  %8 = load ptr, ptr %0, align 8
  %9 = sub i8 0, %5
  %10 = zext i8 %9 to i32
  %.promoted = load i32, ptr %6, align 4, !tbaa !22
  %.promoted12 = load i32, ptr %7, align 8
  br label %11

11:                                               ; preds = %.lr.ph, %_ZN5draco14RAnsBitDecoder13DecodeNextBitEv.exit
  %12 = phi i32 [ %.promoted12, %.lr.ph ], [ %24, %_ZN5draco14RAnsBitDecoder13DecodeNextBitEv.exit ]
  %storemerge.i.i11 = phi i32 [ %.promoted, %.lr.ph ], [ %storemerge.i.i, %_ZN5draco14RAnsBitDecoder13DecodeNextBitEv.exit ]
  %.010 = phi i32 [ 0, %.lr.ph ], [ %34, %_ZN5draco14RAnsBitDecoder13DecodeNextBitEv.exit ]
  %.059 = phi i32 [ %1, %.lr.ph ], [ %35, %_ZN5draco14RAnsBitDecoder13DecodeNextBitEv.exit ]
  %13 = shl i32 %.010, 1
  %14 = icmp ult i32 %storemerge.i.i11, 4096
  %15 = icmp sgt i32 %12, 0
  %or.cond = select i1 %14, i1 %15, i1 false
  br i1 %or.cond, label %16, label %_ZN5draco14RAnsBitDecoder13DecodeNextBitEv.exit

16:                                               ; preds = %11
  %17 = shl nuw nsw i32 %storemerge.i.i11, 8
  %18 = add nsw i32 %12, -1
  store i32 %18, ptr %7, align 8, !tbaa !21
  %19 = zext nneg i32 %18 to i64
  %20 = getelementptr inbounds nuw i8, ptr %8, i64 %19
  %21 = load i8, ptr %20, align 1, !tbaa !20
  %22 = zext i8 %21 to i32
  %23 = or disjoint i32 %17, %22
  br label %_ZN5draco14RAnsBitDecoder13DecodeNextBitEv.exit

_ZN5draco14RAnsBitDecoder13DecodeNextBitEv.exit:  ; preds = %11, %16
  %24 = phi i32 [ %18, %16 ], [ %12, %11 ]
  %25 = phi i32 [ %23, %16 ], [ %storemerge.i.i11, %11 ]
  %26 = lshr i32 %25, 8
  %27 = and i32 %25, 255
  %28 = mul nuw i32 %26, %10
  %29 = icmp samesign ult i32 %27, %10
  %30 = add nuw i32 %28, %10
  %31 = sub i32 %25, %30
  %32 = add nuw i32 %28, %27
  %storemerge.i.i = select i1 %29, i32 %32, i32 %31
  store i32 %storemerge.i.i, ptr %6, align 4, !tbaa !22
  %33 = zext i1 %29 to i32
  %34 = or disjoint i32 %13, %33
  %35 = add nsw i32 %.059, -1
  %.not = icmp eq i32 %35, 0
  br i1 %.not, label %._crit_edge, label %11, !llvm.loop !25

._crit_edge:                                      ; preds = %_ZN5draco14RAnsBitDecoder13DecodeNextBitEv.exit, %3
  %.0.lcssa = phi i32 [ 0, %3 ], [ %34, %_ZN5draco14RAnsBitDecoder13DecodeNextBitEv.exit ]
  store i32 %.0.lcssa, ptr %2, align 4, !tbaa !16
  ret void
}